target datalayout = "e-m:e-p270:32:32-p271:32:32-p272:64:64-i64:64-i128:128-f80:128-n8:16:32:64-S128"
target triple = "x86_64-pc-linux-gnu"

%struct.WebPChunk = type { i32, i32, %struct.WebPData, ptr }
%struct.WebPData = type { ptr, i64 }

; Function Attrs: nounwind uwtable
define internal ptr @ChunkSearchNextInList(ptr noundef %0, i32 noundef %1) #0 {
  %3 = alloca ptr, align 8
  %4 = alloca i32, align 4
  store ptr %0, ptr %3, align 8, !tbaa !3
  store i32 %1, ptr %4, align 4, !tbaa !19
  br label %5

5:                                                ; preds = %16, %2
  %6 = load ptr, ptr %3, align 8, !tbaa !3
  %7 = icmp ne ptr %6, null
  br i1 %7, label %8, label %14

8:                                                ; preds = %5
  %9 = load ptr, ptr %3, align 8, !tbaa !3
  %10 = getelementptr inbounds nuw %struct.WebPChunk, ptr %9, i32 0, i32 0
  %11 = load i32, ptr %10, align 8, !tbaa !8
  %12 = load i32, ptr %4, align 4, !tbaa !19
  %13 = icmp ne i32 %11, %12
  br label %14

14:                                               ; preds = %8, %5
  %15 = phi i1 [ false, %5 ], [ %13, %8 ]
  br i1 %15, label %16, label %20

16:                                               ; preds = %14
  %17 = load ptr, ptr %3, align 8, !tbaa !3
  %18 = getelementptr inbounds nuw %struct.WebPChunk, ptr %17, i32 0, i32 3
  %19 = load ptr, ptr %18, align 8, !tbaa !15
  store ptr %19, ptr %3, align 8, !tbaa !3
  br label %5, !llvm.loop !29

20:                                               ; preds = %14
  %21 = load ptr, ptr %3, align 8, !tbaa !3
  ret ptr %21
}

; Function Attrs: nounwind uwtable
define hidden ptr @ChunkSearchList(ptr noundef %0, i32 noundef %1, i32 noundef %2) #0 {
  %4 = alloca ptr, align 8
  %5 = alloca ptr, align 8
  %6 = alloca i32, align 4
  %7 = alloca i32, align 4
  %8 = alloca i32, align 4
  %9 = alloca i32, align 4
  %10 = alloca ptr, align 8
  store ptr %0, ptr %5, align 8, !tbaa !3
  store i32 %1, ptr %6, align 4, !tbaa !19
  store i32 %2, ptr %7, align 4, !tbaa !19
  call void @llvm.lifetime.start.p0(i64 4, ptr %8) #6
  %11 = load i32, ptr %6, align 4, !tbaa !19
  store i32 %11, ptr %8, align 4, !tbaa !19
  %12 = load ptr, ptr %5, align 8, !tbaa !3
  %13 = load i32, ptr %7, align 4, !tbaa !19
  %14 = call ptr @ChunkSearchNextInList(ptr noundef %12, i32 noundef %13)
  store ptr %14, ptr %5, align 8, !tbaa !3
  %15 = load ptr, ptr %5, align 8, !tbaa !3
  %16 = icmp eq ptr %15, null
  br i1 %16, label %17, label %18

17:                                               ; preds = %3
  store ptr null, ptr %4, align 8
  store i32 1, ptr %9, align 4
  br label %48

18:                                               ; preds = %3
  br label %19

19:                                               ; preds = %36, %18
  %20 = load i32, ptr %8, align 4, !tbaa !19
  %21 = add i32 %20, -1
  store i32 %21, ptr %8, align 4, !tbaa !19
  %22 = icmp ne i32 %21, 0
  br i1 %22, label %23, label %37

23:                                               ; preds = %19
  call void @llvm.lifetime.start.p0(i64 8, ptr %10) #6
  %24 = load ptr, ptr %5, align 8, !tbaa !3
  %25 = getelementptr inbounds nuw %struct.WebPChunk, ptr %24, i32 0, i32 3
  %26 = load ptr, ptr %25, align 8, !tbaa !15
  %27 = load i32, ptr %7, align 4, !tbaa !19
  %28 = call ptr @ChunkSearchNextInList(ptr noundef %26, i32 noundef %27)
  store ptr %28, ptr %10, align 8, !tbaa !3
  %29 = load ptr, ptr %10, align 8, !tbaa !3
  %30 = icmp eq ptr %29, null
  br i1 %30, label %31, label %32

31:                                               ; preds = %23
  store i32 3, ptr %9, align 4
  br label %34

32:                                               ; preds = %23
  %33 = load ptr, ptr %10, align 8, !tbaa !3
  store ptr %33, ptr %5, align 8, !tbaa !3
  store i32 0, ptr %9, align 4
  br label %34

34:                                               ; preds = %32, %31
  call void @llvm.lifetime.end.p0(i64 8, ptr %10) #6
  %35 = load i32, ptr %9, align 4
  switch i32 %35, label %50 [
    i32 0, label %36
    i32 3, label %37
  ]

36:                                               ; preds = %34
  br label %19, !llvm.loop !28

37:                                               ; preds = %34, %19
  %38 = load i32, ptr %6, align 4, !tbaa !19
  %39 = icmp ugt i32 %38, 0
  br i1 %39, label %40, label %44

40:                                               ; preds = %37
  %41 = load i32, ptr %8, align 4, !tbaa !19
  %42 = icmp ugt i32 %41, 0
  br i1 %42, label %43, label %44

43:                                               ; preds = %40
  br label %46

44:                                               ; preds = %40, %37
  %45 = load ptr, ptr %5, align 8, !tbaa !3
  br label %46

46:                                               ; preds = %44, %43
  %47 = phi ptr [ null, %43 ], [ %45, %44 ]
  store ptr %47, ptr %4, align 8
  store i32 1, ptr %9, align 4
  br label %48

48:                                               ; preds = %46, %17
  call void @llvm.lifetime.end.p0(i64 4, ptr %8) #6
  %49 = load ptr, ptr %4, align 8
  ret ptr %49

50:                                               ; preds = %34
  unreachable
}