; Function Attrs: nofree norecurse nosync nounwind memory(read, inaccessiblemem: none) uwtable
define hidden noundef ptr @ChunkSearchList(ptr noundef readonly captures(address_is_null, ret: address, provenance) %0, i32 noundef %1, i32 noundef %2) local_unnamed_addr #8 {
  %.not5.i = icmp eq ptr %0, null
  br i1 %.not5.i, label %ChunkSearchNextInList.exit.thread, label %.lr.ph.i

.lr.ph.i:                                         ; preds = %3, %6
  %.06.i = phi ptr [ %8, %6 ], [ %0, %3 ]
  %4 = load i32, ptr %.06.i, align 8, !tbaa !22
  %.not4.i = icmp eq i32 %4, %2
  br i1 %.not4.i, label %ChunkSearchNextInList.exit.preheader, label %6

ChunkSearchNextInList.exit.preheader:             ; preds = %.lr.ph.i
  %5 = add i32 %1, -1
  %.not36 = icmp eq i32 %5, 0
  br i1 %.not36, label %ChunkSearchNextInList.exit26.thread, label %.lr.ph

6:                                                ; preds = %.lr.ph.i
  %7 = getelementptr inbounds nuw i8, ptr %.06.i, i64 24
  %8 = load ptr, ptr %7, align 8, !tbaa !14
  %.not.i = icmp eq ptr %8, null
  br i1 %.not.i, label %ChunkSearchNextInList.exit.thread, label %.lr.ph.i, !llvm.loop !23

ChunkSearchNextInList.exit.loopexit:              ; preds = %.lr.ph.i21
  %9 = add i32 %10, -1
  %.not = icmp eq i32 %9, 0
  br i1 %.not, label %ChunkSearchNextInList.exit26.thread, label %.lr.ph

.lr.ph:                                           ; preds = %ChunkSearchNextInList.exit.preheader, %ChunkSearchNextInList.exit.loopexit
  %10 = phi i32 [ %9, %ChunkSearchNextInList.exit.loopexit ], [ %5, %ChunkSearchNextInList.exit.preheader ]
  %.01637 = phi ptr [ %.06.i22, %ChunkSearchNextInList.exit.loopexit ], [ %.06.i, %ChunkSearchNextInList.exit.preheader ]
  %11 = getelementptr inbounds nuw i8, ptr %.01637, i64 24
  %12 = load ptr, ptr %11, align 8, !tbaa !14
  %.not5.i20 = icmp eq ptr %12, null
  br i1 %.not5.i20, label %ChunkSearchNextInList.exit26.thread, label %.lr.ph.i21

.lr.ph.i21:                                       ; preds = %.lr.ph, %14
  %.06.i22 = phi ptr [ %16, %14 ], [ %12, %.lr.ph ]
  %13 = load i32, ptr %.06.i22, align 8, !tbaa !22
  %.not4.i23 = icmp eq i32 %13, %2
  br i1 %.not4.i23, label %ChunkSearchNextInList.exit.loopexit, label %14

14:                                               ; preds = %.lr.ph.i21
  %15 = getelementptr inbounds nuw i8, ptr %.06.i22, i64 24
  %16 = load ptr, ptr %15, align 8, !tbaa !14
  %.not.i24 = icmp eq ptr %16, null
  br i1 %.not.i24, label %ChunkSearchNextInList.exit26.thread, label %.lr.ph.i21, !llvm.loop !23

ChunkSearchNextInList.exit26.thread:              ; preds = %ChunkSearchNextInList.exit.loopexit, %.lr.ph, %14, %ChunkSearchNextInList.exit.preheader
  %.01634 = phi ptr [ %.06.i, %ChunkSearchNextInList.exit.preheader ], [ %.01637, %14 ], [ %.06.i22, %ChunkSearchNextInList.exit.loopexit ], [ %.01637, %.lr.ph ]
  %17 = phi i1 [ false, %ChunkSearchNextInList.exit.preheader ], [ true, %14 ], [ %.not5.i20, %.lr.ph ], [ %.not5.i20, %ChunkSearchNextInList.exit.loopexit ]
  %18 = icmp ne i32 %1, 0
  %or.cond = and i1 %18, %17
  %19 = select i1 %or.cond, ptr null, ptr %.01634
  br label %ChunkSearchNextInList.exit.thread

ChunkSearchNextInList.exit.thread:                ; preds = %6, %3, %ChunkSearchNextInList.exit26.thread
  %.0 = phi ptr [ %19, %ChunkSearchNextInList.exit26.thread ], [ null, %3 ], [ null, %6 ]
  ret ptr %.0
}